target datalayout = "e-m:e-p270:32:32-p271:32:32-p272:64:64-i64:64-i128:128-f80:128-n8:16:32:64-S128"
target triple = "x86_64-pc-linux-gnu"

; Function Attrs: inlinehint nounwind uwtable
define internal i64 @mbedtls_ct_compiler_opaque(i64 noundef %0) #3 {
  %2 = alloca i64, align 8
  store i64 %0, ptr %2, align 8, !tbaa !43
  %3 = load i64, ptr %2, align 8, !tbaa !43
  %4 = call i64 asm sideeffect "", "=r,0,~{dirflag},~{fpsr},~{flags}"(i64 %3) #7, !srcloc !66
  store i64 %4, ptr %2, align 8, !tbaa !43
  %5 = load i64, ptr %2, align 8, !tbaa !43
  ret i64 %5
}

; Function Attrs: inlinehint nounwind uwtable
define internal i64 @mbedtls_ct_uint_ne(i64 noundef %0, i64 noundef %1) #3 {
  %3 = alloca i64, align 8
  %4 = alloca i64, align 8
  %5 = alloca i64, align 8
  store i64 %0, ptr %3, align 8, !tbaa !43
  store i64 %1, ptr %4, align 8, !tbaa !43
  call void @llvm.lifetime.start.p0(i64 8, ptr %5) #7
  %6 = load i64, ptr %3, align 8, !tbaa !43
  %7 = call i64 @mbedtls_ct_compiler_opaque(i64 noundef %6)
  %8 = load i64, ptr %4, align 8, !tbaa !43
  %9 = call i64 @mbedtls_ct_compiler_opaque(i64 noundef %8)
  %10 = xor i64 %7, %9
  store i64 %10, ptr %5, align 8, !tbaa !43
  %11 = load i64, ptr %5, align 8, !tbaa !43
  %12 = call i64 @mbedtls_ct_bool(i64 noundef %11)
  call void @llvm.lifetime.end.p0(i64 8, ptr %5) #7
  ret i64 %12
}

; Function Attrs: inlinehint nounwind uwtable
define internal i64 @mbedtls_ct_uint_lt(i64 noundef %0, i64 noundef %1) #3 {
  %3 = alloca i64, align 8
  %4 = alloca i64, align 8
  %5 = alloca i64, align 8
  store i64 %0, ptr %3, align 8, !tbaa !43
  store i64 %1, ptr %4, align 8, !tbaa !43
  call void @llvm.lifetime.start.p0(i64 8, ptr %5) #7
  %6 = load i64, ptr %3, align 8, !tbaa !43
  %7 = load i64, ptr %4, align 8, !tbaa !43
  %8 = call { i64, i64, i64 } asm sideeffect "mov $1, $0                                 \0A\09xor $2, $0                                 \0A\09sub $2, $1                                 \0A\09and $0, $2                                 \0A\09not $0                                       \0A\09and $0, $1                                 \0A\09or $2, $1                                  \0A\09sar $$63, $1                                  \0A\09", "=&{ax},=&{di},=&{si},1,2,~{dirflag},~{fpsr},~{flags}"(i64 %6, i64 %7) #7, !srcloc !65
  %9 = extractvalue { i64, i64, i64 } %8, 0
  %10 = extractvalue { i64, i64, i64 } %8, 1
  %11 = extractvalue { i64, i64, i64 } %8, 2
  store i64 %9, ptr %5, align 8, !tbaa !43
  store i64 %10, ptr %3, align 8, !tbaa !43
  store i64 %11, ptr %4, align 8, !tbaa !43
  %12 = load i64, ptr %3, align 8, !tbaa !43
  call void @llvm.lifetime.end.p0(i64 8, ptr %5) #7
  ret i64 %12
}

; Function Attrs: inlinehint nounwind uwtable
define internal i32 @mbedtls_ct_error_if_else_0(i64 noundef %0, i32 noundef %1) #3 {
  %3 = alloca i64, align 8
  %4 = alloca i32, align 4
  store i64 %0, ptr %3, align 8, !tbaa !43
  store i32 %1, ptr %4, align 4, !tbaa !3
  %5 = load i64, ptr %3, align 8, !tbaa !43
  %6 = load i32, ptr %4, align 4, !tbaa !3
  %7 = sub nsw i32 0, %6
  %8 = sext i32 %7 to i64
  %9 = and i64 %5, %8
  %10 = trunc i64 %9 to i32
  %11 = sub nsw i32 0, %10
  ret i32 %11
}

; Function Attrs: inlinehint nounwind uwtable
define internal i64 @mbedtls_ct_bool_if_else_0(i64 noundef %0, i64 noundef %1) #3 {
  %3 = alloca i64, align 8
  %4 = alloca i64, align 8
  store i64 %0, ptr %3, align 8, !tbaa !43
  store i64 %1, ptr %4, align 8, !tbaa !43
  %5 = load i64, ptr %3, align 8, !tbaa !43
  %6 = load i64, ptr %4, align 8, !tbaa !43
  %7 = and i64 %5, %6
  ret i64 %7
}

; Function Attrs: inlinehint nounwind uwtable
define internal i64 @mbedtls_ct_bool(i64 noundef %0) #3 {
  %2 = alloca i64, align 8
  %3 = alloca i64, align 8
  store i64 %0, ptr %2, align 8, !tbaa !43
  call void @llvm.lifetime.start.p0(i64 8, ptr %3) #7
  %4 = load i64, ptr %2, align 8, !tbaa !43
  %5 = call i64 asm sideeffect "mov  $1, $0                                \0A\09neg  $0                                      \0A\09or   $1, $0                                \0A\09sar  $$63, $0                                 \0A\09", "=&{ax},{di},~{dirflag},~{fpsr},~{flags}"(i64 %4) #7, !srcloc !67
  store i64 %5, ptr %3, align 8, !tbaa !43
  %6 = load i64, ptr %3, align 8, !tbaa !43
  call void @llvm.lifetime.end.p0(i64 8, ptr %3) #7
  ret i64 %6
}

; Function Attrs: inlinehint nounwind uwtable
define internal i64 @mbedtls_ct_uint_ge(i64 noundef %0, i64 noundef %1) #3 {
  %3 = alloca i64, align 8
  %4 = alloca i64, align 8
  store i64 %0, ptr %3, align 8, !tbaa !43
  store i64 %1, ptr %4, align 8, !tbaa !43
  %5 = load i64, ptr %3, align 8, !tbaa !43
  %6 = load i64, ptr %4, align 8, !tbaa !43
  %7 = call i64 @mbedtls_ct_uint_lt(i64 noundef %5, i64 noundef %6)
  %8 = xor i64 %7, -1
  ret i64 %8
}

; Function Attrs: inlinehint nounwind uwtable
define internal i64 @mbedtls_ct_bool_or(i64 noundef %0, i64 noundef %1) #3 {
  %3 = alloca i64, align 8
  %4 = alloca i64, align 8
  store i64 %0, ptr %3, align 8, !tbaa !43
  store i64 %1, ptr %4, align 8, !tbaa !43
  %5 = load i64, ptr %3, align 8, !tbaa !43
  %6 = load i64, ptr %4, align 8, !tbaa !43
  %7 = or i64 %5, %6
  ret i64 %7
}

; Function Attrs: inlinehint nounwind uwtable
define internal i64 @mbedtls_ct_uint_eq(i64 noundef %0, i64 noundef %1) #3 {
  %3 = alloca i64, align 8
  %4 = alloca i64, align 8
  store i64 %0, ptr %3, align 8, !tbaa !43
  store i64 %1, ptr %4, align 8, !tbaa !43
  %5 = load i64, ptr %3, align 8, !tbaa !43
  %6 = load i64, ptr %4, align 8, !tbaa !43
  %7 = call i64 @mbedtls_ct_uint_ne(i64 noundef %5, i64 noundef %6)
  %8 = xor i64 %7, -1
  ret i64 %8
}

; Function Attrs: inlinehint nounwind uwtable
define internal i64 @mbedtls_ct_uint_gt(i64 noundef %0, i64 noundef %1) #3 {
  %3 = alloca i64, align 8
  %4 = alloca i64, align 8
  store i64 %0, ptr %3, align 8, !tbaa !43
  store i64 %1, ptr %4, align 8, !tbaa !43
  %5 = load i64, ptr %4, align 8, !tbaa !43
  %6 = load i64, ptr %3, align 8, !tbaa !43
  %7 = call i64 @mbedtls_ct_uint_lt(i64 noundef %5, i64 noundef %6)
  ret i64 %7
}

; Function Attrs: nounwind uwtable
define internal i32 @get_zeros_and_len_padding(ptr noundef %0, i64 noundef %1, ptr noundef %2) #0 {
  %4 = alloca i32, align 4
  %5 = alloca ptr, align 8
  %6 = alloca i64, align 8
  %7 = alloca ptr, align 8
  %8 = alloca i64, align 8
  %9 = alloca i64, align 8
  %10 = alloca i8, align 1
  %11 = alloca i64, align 8
  %12 = alloca i32, align 4
  %13 = alloca i64, align 8
  %14 = alloca i64, align 8
  store ptr %0, ptr %5, align 8, !tbaa !18
  store i64 %1, ptr %6, align 8, !tbaa !43
  store ptr %2, ptr %7, align 8, !tbaa !46
  call void @llvm.lifetime.start.p0(i64 8, ptr %8) #7
  call void @llvm.lifetime.start.p0(i64 8, ptr %9) #7
  call void @llvm.lifetime.start.p0(i64 1, ptr %10) #7
  call void @llvm.lifetime.start.p0(i64 8, ptr %11) #7
  %15 = load ptr, ptr %5, align 8, !tbaa !18
  %16 = icmp eq ptr null, %15
  br i1 %16, label %20, label %17

17:                                               ; preds = %3
  %18 = load ptr, ptr %7, align 8, !tbaa !46
  %19 = icmp eq ptr null, %18
  br i1 %19, label %20, label %21

20:                                               ; preds = %17, %3
  store i32 -24832, ptr %4, align 4
  store i32 1, ptr %12, align 4
  br label %71

21:                                               ; preds = %17
  %22 = load ptr, ptr %5, align 8, !tbaa !18
  %23 = load i64, ptr %6, align 8, !tbaa !43
  %24 = sub i64 %23, 1
  %25 = getelementptr inbounds nuw i8, ptr %22, i64 %24
  %26 = load i8, ptr %25, align 1, !tbaa !57
  store i8 %26, ptr %10, align 1, !tbaa !57
  %27 = load i64, ptr %6, align 8, !tbaa !43
  %28 = load i8, ptr %10, align 1, !tbaa !57
  %29 = zext i8 %28 to i64
  %30 = sub i64 %27, %29
  %31 = load ptr, ptr %7, align 8, !tbaa !46
  store i64 %30, ptr %31, align 8, !tbaa !43
  %32 = load i8, ptr %10, align 1, !tbaa !57
  %33 = zext i8 %32 to i64
  %34 = load i64, ptr %6, align 8, !tbaa !43
  %35 = call i64 @mbedtls_ct_uint_gt(i64 noundef %33, i64 noundef %34)
  store i64 %35, ptr %11, align 8, !tbaa !43
  %36 = load i64, ptr %11, align 8, !tbaa !43
  %37 = load i8, ptr %10, align 1, !tbaa !57
  %38 = zext i8 %37 to i64
  %39 = call i64 @mbedtls_ct_uint_eq(i64 noundef %38, i64 noundef 0)
  %40 = call i64 @mbedtls_ct_bool_or(i64 noundef %36, i64 noundef %39)
  store i64 %40, ptr %11, align 8, !tbaa !43
  %41 = load i64, ptr %6, align 8, !tbaa !43
  %42 = load i8, ptr %10, align 1, !tbaa !57
  %43 = zext i8 %42 to i64
  %44 = sub i64 %41, %43
  store i64 %44, ptr %9, align 8, !tbaa !43
  store i64 0, ptr %8, align 8, !tbaa !43
  br label %45

45:                                               ; preds = %65, %21
  %46 = load i64, ptr %8, align 8, !tbaa !43
  %47 = load i64, ptr %6, align 8, !tbaa !43
  %48 = sub i64 %47, 1
  %49 = icmp ult i64 %46, %48
  br i1 %49, label %50, label %68

50:                                               ; preds = %45
  call void @llvm.lifetime.start.p0(i64 8, ptr %13) #7
  %51 = load i64, ptr %8, align 8, !tbaa !43
  %52 = load i64, ptr %9, align 8, !tbaa !43
  %53 = call i64 @mbedtls_ct_uint_ge(i64 noundef %51, i64 noundef %52)
  store i64 %53, ptr %13, align 8, !tbaa !43
  call void @llvm.lifetime.start.p0(i64 8, ptr %14) #7
  %54 = load i64, ptr %13, align 8, !tbaa !43
  %55 = load ptr, ptr %5, align 8, !tbaa !18
  %56 = load i64, ptr %8, align 8, !tbaa !43
  %57 = getelementptr inbounds nuw i8, ptr %55, i64 %56
  %58 = load i8, ptr %57, align 1, !tbaa !57
  %59 = zext i8 %58 to i64
  %60 = call i64 @mbedtls_ct_bool(i64 noundef %59)
  %61 = call i64 @mbedtls_ct_bool_if_else_0(i64 noundef %54, i64 noundef %60)
  store i64 %61, ptr %14, align 8, !tbaa !43
  %62 = load i64, ptr %11, align 8, !tbaa !43
  %63 = load i64, ptr %14, align 8, !tbaa !43
  %64 = call i64 @mbedtls_ct_bool_or(i64 noundef %62, i64 noundef %63)
  store i64 %64, ptr %11, align 8, !tbaa !43
  call void @llvm.lifetime.end.p0(i64 8, ptr %14) #7
  call void @llvm.lifetime.end.p0(i64 8, ptr %13) #7
  br label %65

65:                                               ; preds = %50
  %66 = load i64, ptr %8, align 8, !tbaa !43
  %67 = add i64 %66, 1
  store i64 %67, ptr %8, align 8, !tbaa !43
  br label %45, !llvm.loop !63

68:                                               ; preds = %45
  %69 = load i64, ptr %11, align 8, !tbaa !43
  %70 = call i32 @mbedtls_ct_error_if_else_0(i64 noundef %69, i32 noundef -25088)
  store i32 %70, ptr %4, align 4
  store i32 1, ptr %12, align 4
  br label %71

71:                                               ; preds = %68, %20
  call void @llvm.lifetime.end.p0(i64 8, ptr %11) #7
  call void @llvm.lifetime.end.p0(i64 1, ptr %10) #7
  call void @llvm.lifetime.end.p0(i64 8, ptr %9) #7
  call void @llvm.lifetime.end.p0(i64 8, ptr %8) #7
  %72 = load i32, ptr %4, align 4
  ret i32 %72
}