; Function Attrs: nounwind uwtable
define internal range(i32 -25088, 1) i32 @get_zeros_and_len_padding(ptr noundef readonly %0, i64 noundef %1, ptr noundef writeonly %2) #8 {
  %4 = icmp eq ptr %0, null
  %5 = icmp eq ptr %2, null
  %or.cond = or i1 %4, %5
  br i1 %or.cond, label %33, label %6

6:                                                ; preds = %3
  %7 = add i64 %1, -1
  %8 = getelementptr inbounds nuw i8, ptr %0, i64 %7
  %9 = load i8, ptr %8, align 1, !tbaa !47
  %10 = zext i8 %9 to i64
  %11 = sub i64 %1, %10
  store i64 %11, ptr %2, align 8, !tbaa !37
  %12 = tail call { i64, i64, i64 } asm sideeffect "mov $1, $0                                 \0A\09xor $2, $0                                 \0A\09sub $2, $1                                 \0A\09and $0, $2                                 \0A\09not $0                                       \0A\09and $0, $1                                 \0A\09or $2, $1                                  \0A\09sar $$63, $1                                  \0A\09", "=&{ax},=&{di},=&{si},1,2,~{dirflag},~{fpsr},~{flags}"(i64 %1, i64 range(i64 0, 256) %10) #15, !srcloc !49
  %13 = extractvalue { i64, i64, i64 } %12, 1
  %14 = tail call i64 asm sideeffect "", "=r,0,~{dirflag},~{fpsr},~{flags}"(i64 range(i64 0, 256) %10) #15, !srcloc !50
  %15 = tail call i64 asm sideeffect "", "=r,0,~{dirflag},~{fpsr},~{flags}"(i64 range(i64 -1, 256) 0) #15, !srcloc !50
  %16 = xor i64 %15, %14
  %17 = tail call i64 asm sideeffect "mov  $1, $0                                \0A\09neg  $0                                      \0A\09or   $1, $0                                \0A\09sar  $$63, $0                                 \0A\09", "=&{ax},{di},~{dirflag},~{fpsr},~{flags}"(i64 %16) #15, !srcloc !51
  %18 = xor i64 %17, -1
  %19 = or i64 %13, %18
  %.not = icmp eq i64 %7, 0
  br i1 %.not, label %._crit_edge, label %.lr.ph

.lr.ph:                                           ; preds = %6, %.lr.ph
  %.02530 = phi i64 [ %29, %.lr.ph ], [ 0, %6 ]
  %.02629 = phi i64 [ %28, %.lr.ph ], [ %19, %6 ]
  %20 = tail call { i64, i64, i64 } asm sideeffect "mov $1, $0                                 \0A\09xor $2, $0                                 \0A\09sub $2, $1                                 \0A\09and $0, $2                                 \0A\09not $0                                       \0A\09and $0, $1                                 \0A\09or $2, $1                                  \0A\09sar $$63, $1                                  \0A\09", "=&{ax},=&{di},=&{si},1,2,~{dirflag},~{fpsr},~{flags}"(i64 %.02530, i64 %11) #15, !srcloc !49
  %21 = extractvalue { i64, i64, i64 } %20, 1
  %22 = xor i64 %21, -1
  %23 = getelementptr inbounds nuw i8, ptr %0, i64 %.02530
  %24 = load i8, ptr %23, align 1, !tbaa !47
  %25 = zext i8 %24 to i64
  %26 = tail call i64 asm sideeffect "mov  $1, $0                                \0A\09neg  $0                                      \0A\09or   $1, $0                                \0A\09sar  $$63, $0                                 \0A\09", "=&{ax},{di},~{dirflag},~{fpsr},~{flags}"(i64 %25) #15, !srcloc !51
  %27 = and i64 %26, %22
  %28 = or i64 %27, %.02629
  %29 = add nuw i64 %.02530, 1
  %exitcond.not = icmp eq i64 %29, %7
  br i1 %exitcond.not, label %._crit_edge, label %.lr.ph, !llvm.loop !57

._crit_edge:                                      ; preds = %.lr.ph, %6
  %.026.lcssa = phi i64 [ %19, %6 ], [ %28, %.lr.ph ]
  %30 = trunc i64 %.026.lcssa to i32
  %31 = and i32 %30, 25088
  %32 = sub nsw i32 0, %31
  br label %33

33:                                               ; preds = %3, %._crit_edge
  %.0 = phi i32 [ %32, %._crit_edge ], [ -24832, %3 ]
  ret i32 %.0
}